target datalayout = "e-m:e-p270:32:32-p271:32:32-p272:64:64-i64:64-i128:128-f80:128-n8:16:32:64-S128"
target triple = "x86_64-pc-linux-gnu"

%struct.ExprEvalStep = type { i64, ptr, ptr, %union.anon }
%union.anon = type { %struct.anon.23 }
%struct.anon.23 = type { ptr, ptr, i32, i32, ptr, ptr }
%struct.ExprContext = type { i32, ptr, ptr, ptr, ptr, ptr, ptr, ptr, ptr, ptr, i64, i8, i64, i8, ptr, ptr, ptr, ptr }
%struct.anon.11 = type { i32, i32 }
%struct.ParamExternData = type { i64, i8, i16, i32 }
%struct.ParamListInfoData = type { ptr, ptr, ptr, ptr, ptr, ptr, ptr, i32, [0 x %struct.ParamExternData] }

@.str = private unnamed_addr constant [75 x i8] c"type of parameter %d (%s) does not match that when preparing the plan (%s)\00", align 1
@.str.1 = private unnamed_addr constant [17 x i8] c"execExprInterp.c\00", align 1
@__func__.ExecEvalParamExtern = private unnamed_addr constant [20 x i8] c"ExecEvalParamExtern\00", align 1
@.str.2 = private unnamed_addr constant [32 x i8] c"no value found for parameter %d\00", align 1

; Function Attrs: nounwind uwtable
define dso_local void @ExecEvalParamExtern(ptr noundef %0, ptr noundef %1, ptr noundef %2) #0 {
  %4 = alloca ptr, align 8
  %5 = alloca ptr, align 8
  %6 = alloca ptr, align 8
  %7 = alloca ptr, align 8
  %8 = alloca i32, align 4
  %9 = alloca ptr, align 8
  %10 = alloca %struct.ParamExternData, align 8
  %11 = alloca i32, align 4
  store ptr %0, ptr %4, align 8
  store ptr %1, ptr %5, align 8
  store ptr %2, ptr %6, align 8
  call void @llvm.lifetime.start.p0(i64 8, ptr %7) #11
  %12 = load ptr, ptr %6, align 8
  %13 = getelementptr inbounds nuw %struct.ExprContext, ptr %12, i32 0, i32 7
  %14 = load ptr, ptr %13, align 8
  store ptr %14, ptr %7, align 8
  call void @llvm.lifetime.start.p0(i64 4, ptr %8) #11
  %15 = load ptr, ptr %5, align 8
  %16 = getelementptr inbounds nuw %struct.ExprEvalStep, ptr %15, i32 0, i32 3
  %17 = getelementptr inbounds nuw %struct.anon.11, ptr %16, i32 0, i32 0
  %18 = load i32, ptr %17, align 8
  store i32 %18, ptr %8, align 4
  %19 = load ptr, ptr %7, align 8
  %20 = icmp ne ptr %19, null
  br i1 %20, label %21, label %30

21:                                               ; preds = %3
  %22 = load i32, ptr %8, align 4
  %23 = icmp sgt i32 %22, 0
  br i1 %23, label %24, label %30

24:                                               ; preds = %21
  %25 = load i32, ptr %8, align 4
  %26 = load ptr, ptr %7, align 8
  %27 = getelementptr inbounds nuw %struct.ParamListInfoData, ptr %26, i32 0, i32 7
  %28 = load i32, ptr %27, align 8
  %29 = icmp sle i32 %25, %28
  br label %30

30:                                               ; preds = %24, %21, %3
  %31 = phi i1 [ false, %21 ], [ false, %3 ], [ %29, %24 ]
  %32 = zext i1 %31 to i32
  %33 = icmp ne i32 %32, 0
  %34 = zext i1 %33 to i32
  %35 = sext i32 %34 to i64
  %36 = call i64 @llvm.expect.i64(i64 %35, i64 1)
  %37 = icmp ne i64 %36, 0
  br i1 %37, label %38, label %124

38:                                               ; preds = %30
  call void @llvm.lifetime.start.p0(i64 8, ptr %9) #11
  call void @llvm.lifetime.start.p0(i64 16, ptr %10) #11
  %39 = load ptr, ptr %7, align 8
  %40 = getelementptr inbounds nuw %struct.ParamListInfoData, ptr %39, i32 0, i32 0
  %41 = load ptr, ptr %40, align 8
  %42 = icmp ne ptr %41, null
  br i1 %42, label %43, label %50

43:                                               ; preds = %38
  %44 = load ptr, ptr %7, align 8
  %45 = getelementptr inbounds nuw %struct.ParamListInfoData, ptr %44, i32 0, i32 0
  %46 = load ptr, ptr %45, align 8
  %47 = load ptr, ptr %7, align 8
  %48 = load i32, ptr %8, align 4
  %49 = call ptr %46(ptr noundef %47, i32 noundef %48, i1 noundef zeroext false, ptr noundef %10)
  store ptr %49, ptr %9, align 8
  br label %57

50:                                               ; preds = %38
  %51 = load ptr, ptr %7, align 8
  %52 = getelementptr inbounds nuw %struct.ParamListInfoData, ptr %51, i32 0, i32 8
  %53 = load i32, ptr %8, align 4
  %54 = sub i32 %53, 1
  %55 = sext i32 %54 to i64
  %56 = getelementptr inbounds [0 x %struct.ParamExternData], ptr %52, i64 0, i64 %55
  store ptr %56, ptr %9, align 8
  br label %57

57:                                               ; preds = %50, %43
  %58 = load ptr, ptr %9, align 8
  %59 = getelementptr inbounds nuw %struct.ParamExternData, ptr %58, i32 0, i32 3
  %60 = load i32, ptr %59, align 4
  %61 = icmp ne i32 %60, 0
  %62 = zext i1 %61 to i32
  %63 = icmp ne i32 %62, 0
  %64 = zext i1 %63 to i32
  %65 = sext i32 %64 to i64
  %66 = call i64 @llvm.expect.i64(i64 %65, i64 1)
  %67 = icmp ne i64 %66, 0
  br i1 %67, label %68, label %120

68:                                               ; preds = %57
  %69 = load ptr, ptr %9, align 8
  %70 = getelementptr inbounds nuw %struct.ParamExternData, ptr %69, i32 0, i32 3
  %71 = load i32, ptr %70, align 4
  %72 = load ptr, ptr %5, align 8
  %73 = getelementptr inbounds nuw %struct.ExprEvalStep, ptr %72, i32 0, i32 3
  %74 = getelementptr inbounds nuw %struct.anon.11, ptr %73, i32 0, i32 1
  %75 = load i32, ptr %74, align 4
  %76 = icmp ne i32 %71, %75
  %77 = zext i1 %76 to i32
  %78 = icmp ne i32 %77, 0
  %79 = zext i1 %78 to i32
  %80 = sext i32 %79 to i64
  %81 = call i64 @llvm.expect.i64(i64 %80, i64 0)
  %82 = icmp ne i64 %81, 0
  br i1 %82, label %83, label %105

83:                                               ; preds = %68
  br label %84

84:                                               ; preds = %83
  br i1 true, label %85, label %87

85:                                               ; preds = %84
  %86 = call zeroext i1 @errstart_cold(i32 noundef 21, ptr noundef null) #12
  br i1 %86, label %89, label %102

87:                                               ; preds = %84
  %88 = call zeroext i1 @errstart(i32 noundef 21, ptr noundef null)
  br i1 %88, label %89, label %102

89:                                               ; preds = %87, %85
  %90 = call i32 @errcode(i32 noundef 67141764)
  %91 = load i32, ptr %8, align 4
  %92 = load ptr, ptr %9, align 8
  %93 = getelementptr inbounds nuw %struct.ParamExternData, ptr %92, i32 0, i32 3
  %94 = load i32, ptr %93, align 4
  %95 = call ptr @format_type_be(i32 noundef %94)
  %96 = load ptr, ptr %5, align 8
  %97 = getelementptr inbounds nuw %struct.ExprEvalStep, ptr %96, i32 0, i32 3
  %98 = getelementptr inbounds nuw %struct.anon.11, ptr %97, i32 0, i32 1
  %99 = load i32, ptr %98, align 4
  %100 = call ptr @format_type_be(i32 noundef %99)
  %101 = call i32 (ptr, ...) @errmsg(ptr noundef @.str, i32 noundef %91, ptr noundef %95, ptr noundef %100)
  call void @errfinish(ptr noundef @.str.1, i32 noundef 3015, ptr noundef @__func__.ExecEvalParamExtern)
  br label %102

102:                                              ; preds = %89, %87, %85
  unreachable

103:                                              ; No predecessors!
  br label %104

104:                                              ; preds = %103
  br label %105

105:                                              ; preds = %104, %68
  %106 = load ptr, ptr %9, align 8
  %107 = getelementptr inbounds nuw %struct.ParamExternData, ptr %106, i32 0, i32 0
  %108 = load i64, ptr %107, align 8
  %109 = load ptr, ptr %5, align 8
  %110 = getelementptr inbounds nuw %struct.ExprEvalStep, ptr %109, i32 0, i32 1
  %111 = load ptr, ptr %110, align 8
  store i64 %108, ptr %111, align 8
  %112 = load ptr, ptr %9, align 8
  %113 = getelementptr inbounds nuw %struct.ParamExternData, ptr %112, i32 0, i32 1
  %114 = load i8, ptr %113, align 8, !range !7, !noundef !8
  %115 = trunc i8 %114 to i1
  %116 = load ptr, ptr %5, align 8
  %117 = getelementptr inbounds nuw %struct.ExprEvalStep, ptr %116, i32 0, i32 2
  %118 = load ptr, ptr %117, align 8
  %119 = zext i1 %115 to i8
  store i8 %119, ptr %118, align 1
  store i32 1, ptr %11, align 4
  br label %121

120:                                              ; preds = %57
  store i32 0, ptr %11, align 4
  br label %121

121:                                              ; preds = %120, %105
  call void @llvm.lifetime.end.p0(i64 16, ptr %10) #11
  call void @llvm.lifetime.end.p0(i64 8, ptr %9) #11
  %122 = load i32, ptr %11, align 4
  switch i32 %122, label %137 [
    i32 0, label %123
  ]

123:                                              ; preds = %121
  br label %124

124:                                              ; preds = %123, %30
  br label %125

125:                                              ; preds = %124
  br i1 true, label %126, label %128

126:                                              ; preds = %125
  %127 = call zeroext i1 @errstart_cold(i32 noundef 21, ptr noundef null) #12
  br i1 %127, label %130, label %134

128:                                              ; preds = %125
  %129 = call zeroext i1 @errstart(i32 noundef 21, ptr noundef null)
  br i1 %129, label %130, label %134

130:                                              ; preds = %128, %126
  %131 = call i32 @errcode(i32 noundef 67137668)
  %132 = load i32, ptr %8, align 4
  %133 = call i32 (ptr, ...) @errmsg(ptr noundef @.str.2, i32 noundef %132)
  call void @errfinish(ptr noundef @.str.1, i32 noundef 3024, ptr noundef @__func__.ExecEvalParamExtern)
  br label %134

134:                                              ; preds = %130, %128, %126
  unreachable

135:                                              ; No predecessors!
  br label %136

136:                                              ; preds = %135
  store i32 0, ptr %11, align 4
  br label %137

137:                                              ; preds = %136, %121
  call void @llvm.lifetime.end.p0(i64 4, ptr %8) #11
  call void @llvm.lifetime.end.p0(i64 8, ptr %7) #11
  %138 = load i32, ptr %11, align 4
  switch i32 %138, label %140 [
    i32 0, label %139
    i32 1, label %139
  ]

139:                                              ; preds = %137, %137
  ret void

140:                                              ; preds = %137
  unreachable
}