; Function Attrs: nounwind uwtable
define dso_local void @ExecEvalParamExtern(ptr readnone captures(none) %0, ptr noundef readonly captures(none) %1, ptr noundef readonly captures(none) %2) local_unnamed_addr #0 {
  %4 = alloca %struct.ParamExternData, align 8
  %5 = getelementptr inbounds nuw i8, ptr %2, i64 56
  %6 = load ptr, ptr %5, align 8
  %7 = getelementptr inbounds nuw i8, ptr %1, i64 24
  %8 = load i32, ptr %7, align 8
  %9 = icmp ne ptr %6, null
  %10 = icmp sgt i32 %8, 0
  %or.cond = select i1 %9, i1 %10, i1 false
  br i1 %or.cond, label %11, label %.critedge

11:                                               ; preds = %3
  %12 = getelementptr inbounds nuw i8, ptr %6, i64 56
  %13 = load i32, ptr %12, align 8
  %.not33 = icmp sgt i32 %8, %13
  br i1 %.not33, label %.critedge, label %14, !prof !11

14:                                               ; preds = %11
  call void @llvm.lifetime.start.p0(i64 16, ptr nonnull %4) #18
  %15 = load ptr, ptr %6, align 8
  %.not = icmp eq ptr %15, null
  br i1 %.not, label %18, label %16

16:                                               ; preds = %14
  %17 = call ptr %15(ptr noundef nonnull %6, i32 noundef %8, i1 noundef zeroext false, ptr noundef nonnull %4) #18
  br label %23

18:                                               ; preds = %14
  %19 = getelementptr inbounds nuw i8, ptr %6, i64 64
  %20 = add nsw i32 %8, -1
  %21 = zext nneg i32 %20 to i64
  %22 = getelementptr inbounds nuw [0 x %struct.ParamExternData], ptr %19, i64 0, i64 %21
  br label %23

23:                                               ; preds = %18, %16
  %.024 = phi ptr [ %17, %16 ], [ %22, %18 ]
  %24 = getelementptr inbounds nuw i8, ptr %.024, i64 12
  %25 = load i32, ptr %24, align 4
  %.not29 = icmp eq i32 %25, 0
  br i1 %.not29, label %.critedge32, label %26, !prof !11

26:                                               ; preds = %23
  %27 = getelementptr inbounds nuw i8, ptr %1, i64 28
  %28 = load i32, ptr %27, align 4
  %.not30 = icmp eq i32 %25, %28
  br i1 %.not30, label %40, label %29, !prof !15

29:                                               ; preds = %26
  %30 = call zeroext i1 @errstart_cold(i32 noundef 21, ptr noundef null) #19
  call void @llvm.assume(i1 %30)
  %31 = call i32 @errcode(i32 noundef 67141764) #18
  %32 = load i32, ptr %24, align 4
  %33 = call ptr @format_type_be(i32 noundef %32) #18
  %34 = load i32, ptr %27, align 4
  %35 = call ptr @format_type_be(i32 noundef %34) #18
  %36 = call i32 (ptr, ...) @errmsg(ptr noundef nonnull @.str, i32 noundef %8, ptr noundef %33, ptr noundef %35) #18
  call void @errfinish(ptr noundef nonnull @.str.1, i32 noundef 3015, ptr noundef nonnull @__func__.ExecEvalParamExtern) #18
  unreachable

.critedge32:                                      ; preds = %23
  call void @llvm.lifetime.end.p0(i64 16, ptr nonnull %4) #18
  br label %.critedge

.critedge:                                        ; preds = %3, %.critedge32, %11
  %37 = call zeroext i1 @errstart_cold(i32 noundef 21, ptr noundef null) #19
  call void @llvm.assume(i1 %37)
  %38 = call i32 @errcode(i32 noundef 67137668) #18
  %39 = call i32 (ptr, ...) @errmsg(ptr noundef nonnull @.str.2, i32 noundef %8) #18
  call void @errfinish(ptr noundef nonnull @.str.1, i32 noundef 3024, ptr noundef nonnull @__func__.ExecEvalParamExtern) #18
  unreachable

40:                                               ; preds = %26
  %41 = load i64, ptr %.024, align 8
  %42 = getelementptr inbounds nuw i8, ptr %1, i64 8
  %43 = load ptr, ptr %42, align 8
  store i64 %41, ptr %43, align 8
  %44 = getelementptr inbounds nuw i8, ptr %.024, i64 8
  %45 = load i8, ptr %44, align 8, !range !8, !noundef !9
  %46 = getelementptr inbounds nuw i8, ptr %1, i64 16
  %47 = load ptr, ptr %46, align 8
  store i8 %45, ptr %47, align 1
  call void @llvm.lifetime.end.p0(i64 16, ptr nonnull %4) #18
  ret void
}